target datalayout = "e-m:e-p270:32:32-p271:32:32-p272:64:64-i64:64-i128:128-f80:128-n8:16:32:64-S128"
target triple = "x86_64-pc-linux-gnu"

%struct.slurm_opt_t = type { ptr, ptr, ptr, ptr, ptr, ptr, ptr, ptr, i32, ptr, ptr, ptr, ptr, i32, i32, ptr, i32, i8, i8, i32, i8, i32, i32, ptr, i8, i32, i32, i64, i32, i32, i32, i32, i32, i32, ptr, i32, ptr, i8, i32, i32, ptr, i32, i32, i32, ptr, ptr, i32, i32, ptr, ptr, ptr, i32, i16, i16, i16, i8, i8, ptr, i8, i16, ptr, ptr, i32, i32, i32, ptr, ptr, ptr, ptr, ptr, ptr, i32, i64, i64, i64, i16, i64, ptr, ptr, ptr, ptr, ptr, ptr, ptr, i8, ptr, ptr, ptr, ptr, i8, i64, ptr, i16, ptr, i32, i32, ptr, ptr, i32, i32, i32, ptr, i32, i32, i32, i32, i32, ptr, i64, i32, i16, i32, ptr, ptr, ptr, ptr, ptr, i16, ptr, ptr, i16, i8, ptr, ptr, ptr, ptr }

@.str = private unnamed_addr constant [11 x i8] c"srun_job.c\00", align 1
@opt = external global %struct.slurm_opt_t, align 8
@.str.74 = private unnamed_addr constant [25 x i8] c"Access denied for %s: %m\00", align 1
@.str.75 = private unnamed_addr constant [26 x i8] c"run_srun_script: fork: %m\00", align 1
@__func__._run_srun_script = private unnamed_addr constant [17 x i8] c"_run_srun_script\00", align 1
@.str.76 = private unnamed_addr constant [48 x i8] c"Failed to execute srun prolog/epilog script: %m\00", align 1
@.str.77 = private unnamed_addr constant [12 x i8] c"waitpid: %m\00", align 1
@.str.78 = private unnamed_addr constant [29 x i8] c"script did not exit normally\00", align 1

; Function Attrs: nounwind uwtable
define internal i32 @_run_srun_script(ptr noundef %0, ptr noundef %1) #0 {
  %3 = alloca i32, align 4
  %4 = alloca ptr, align 8
  %5 = alloca ptr, align 8
  %6 = alloca i32, align 4
  %7 = alloca i32, align 4
  %8 = alloca i32, align 4
  %9 = alloca ptr, align 8
  %10 = alloca i32, align 4
  store ptr %0, ptr %4, align 8
  store ptr %1, ptr %5, align 8
  call void @llvm.lifetime.start.p0(i64 4, ptr %6) #10
  call void @llvm.lifetime.start.p0(i64 4, ptr %7) #10
  call void @llvm.lifetime.start.p0(i64 4, ptr %8) #10
  call void @llvm.lifetime.start.p0(i64 8, ptr %9) #10
  store ptr null, ptr %9, align 8
  %11 = load ptr, ptr %5, align 8
  %12 = icmp eq ptr %11, null
  br i1 %12, label %19, label %13

13:                                               ; preds = %2
  %14 = load ptr, ptr %5, align 8
  %15 = getelementptr inbounds i8, ptr %14, i64 0
  %16 = load i8, ptr %15, align 1
  %17 = sext i8 %16 to i32
  %18 = icmp eq i32 %17, 0
  br i1 %18, label %19, label %20

19:                                               ; preds = %13, %2
  store i32 0, ptr %3, align 4
  store i32 1, ptr %10, align 4
  br label %101

20:                                               ; preds = %13
  %21 = load ptr, ptr %5, align 8
  %22 = call i32 @access(ptr noundef %21, i32 noundef 5) #10
  %23 = icmp slt i32 %22, 0
  br i1 %23, label %24, label %36

24:                                               ; preds = %20
  br label %25

25:                                               ; preds = %24
  br label %26

26:                                               ; preds = %25
  %27 = call i32 @get_log_level()
  %28 = icmp sge i32 %27, 3
  br i1 %28, label %29, label %31

29:                                               ; preds = %26
  %30 = load ptr, ptr %5, align 8
  call void (i32, ptr, ...) @log_var(i32 noundef 3, ptr noundef @.str.74, ptr noundef %30)
  br label %31

31:                                               ; preds = %29, %26
  br label %32

32:                                               ; preds = %31
  br label %33

33:                                               ; preds = %32
  br label %34

34:                                               ; preds = %33
  br label %35

35:                                               ; preds = %34
  store i32 0, ptr %3, align 4
  store i32 1, ptr %10, align 4
  br label %101

36:                                               ; preds = %20
  %37 = call i32 @fork() #10
  store i32 %37, ptr %7, align 4
  %38 = icmp slt i32 %37, 0
  br i1 %38, label %39, label %41

39:                                               ; preds = %36
  %40 = call i32 (ptr, ...) @error(ptr noundef @.str.75)
  store i32 1, ptr %3, align 4
  store i32 1, ptr %10, align 4
  br label %101

41:                                               ; preds = %36
  %42 = load i32, ptr %7, align 4
  %43 = icmp eq i32 %42, 0
  br i1 %43, label %44, label %77

44:                                               ; preds = %41
  %45 = call ptr @slurm_xcalloc(i64 noundef 1, i64 noundef 8192, i1 noundef zeroext true, i1 noundef zeroext false, ptr noundef @.str, i32 noundef 1902, ptr noundef @__func__._run_srun_script)
  store ptr %45, ptr %9, align 8
  %46 = load ptr, ptr %5, align 8
  %47 = load ptr, ptr %9, align 8
  %48 = getelementptr inbounds ptr, ptr %47, i64 0
  store ptr %46, ptr %48, align 8
  store i32 0, ptr %8, align 4
  br label %49

49:                                               ; preds = %64, %44
  %50 = load i32, ptr %8, align 4
  %51 = load i32, ptr getelementptr inbounds nuw (%struct.slurm_opt_t, ptr @opt, i32 0, i32 8), align 8
  %52 = icmp slt i32 %50, %51
  br i1 %52, label %53, label %67

53:                                               ; preds = %49
  %54 = load ptr, ptr getelementptr inbounds nuw (%struct.slurm_opt_t, ptr @opt, i32 0, i32 9), align 8
  %55 = load i32, ptr %8, align 4
  %56 = sext i32 %55 to i64
  %57 = getelementptr inbounds ptr, ptr %54, i64 %56
  %58 = load ptr, ptr %57, align 8
  %59 = load ptr, ptr %9, align 8
  %60 = load i32, ptr %8, align 4
  %61 = add nsw i32 %60, 1
  %62 = sext i32 %61 to i64
  %63 = getelementptr inbounds ptr, ptr %59, i64 %62
  store ptr %58, ptr %63, align 8
  br label %64

64:                                               ; preds = %53
  %65 = load i32, ptr %8, align 4
  %66 = add nsw i32 %65, 1
  store i32 %66, ptr %8, align 4
  br label %49, !llvm.loop !51

67:                                               ; preds = %49
  %68 = load ptr, ptr %9, align 8
  %69 = load i32, ptr %8, align 4
  %70 = add nsw i32 %69, 1
  %71 = sext i32 %70 to i64
  %72 = getelementptr inbounds ptr, ptr %68, i64 %71
  store ptr null, ptr %72, align 8
  %73 = load ptr, ptr %5, align 8
  %74 = load ptr, ptr %9, align 8
  %75 = call i32 @execv(ptr noundef %73, ptr noundef %74) #10
  %76 = call i32 (ptr, ...) @error(ptr noundef @.str.76)
  call void @_exit(i32 noundef 127) #12
  unreachable

77:                                               ; preds = %41
  br label %78

78:                                               ; preds = %99, %77
  %79 = load i32, ptr %7, align 4
  %80 = call i32 @waitpid(i32 noundef %79, ptr noundef %6, i32 noundef 0)
  %81 = icmp slt i32 %80, 0
  br i1 %81, label %82, label %89

82:                                               ; preds = %78
  %83 = call ptr @__errno_location() #11
  %84 = load i32, ptr %83, align 4
  %85 = icmp eq i32 %84, 4
  br i1 %85, label %86, label %87

86:                                               ; preds = %82
  br label %99

87:                                               ; preds = %82
  %88 = call i32 (ptr, ...) @error(ptr noundef @.str.77)
  store i32 0, ptr %3, align 4
  store i32 1, ptr %10, align 4
  br label %101

89:                                               ; preds = %78
  %90 = load i32, ptr %6, align 4
  %91 = and i32 %90, 127
  %92 = icmp eq i32 %91, 0
  br i1 %92, label %93, label %97

93:                                               ; preds = %89
  %94 = load i32, ptr %6, align 4
  %95 = and i32 %94, 65280
  %96 = ashr i32 %95, 8
  store i32 %96, ptr %3, align 4
  store i32 1, ptr %10, align 4
  br label %101

97:                                               ; preds = %89
  %98 = call i32 (ptr, ...) @error(ptr noundef @.str.78)
  store i32 1, ptr %3, align 4
  store i32 1, ptr %10, align 4
  br label %101

99:                                               ; preds = %86
  br i1 true, label %78, label %100, !llvm.loop !52

100:                                              ; preds = %99
  store i32 0, ptr %10, align 4
  br label %101

101:                                              ; preds = %100, %97, %93, %87, %39, %35, %19
  call void @llvm.lifetime.end.p0(i64 8, ptr %9) #10
  call void @llvm.lifetime.end.p0(i64 4, ptr %8) #10
  call void @llvm.lifetime.end.p0(i64 4, ptr %7) #10
  call void @llvm.lifetime.end.p0(i64 4, ptr %6) #10
  %102 = load i32, ptr %10, align 4
  switch i32 %102, label %105 [
    i32 0, label %103
    i32 1, label %103
  ]

103:                                              ; preds = %101, %101
  %104 = load i32, ptr %3, align 4
  ret i32 %104

105:                                              ; preds = %101
  unreachable
}