; Function Attrs: nounwind uwtable
define internal fastcc range(i32 0, 256) i32 @_run_srun_script(ptr noundef %0) unnamed_addr #0 {
  %2 = alloca i32, align 4
  call void @llvm.lifetime.start.p0(i64 4, ptr nonnull %2) #15
  %3 = icmp eq ptr %0, null
  br i1 %3, label %54, label %4

4:                                                ; preds = %1
  %5 = load i8, ptr %0, align 1
  %6 = icmp eq i8 %5, 0
  br i1 %6, label %54, label %7

7:                                                ; preds = %4
  %8 = tail call i32 @access(ptr noundef nonnull %0, i32 noundef 5) #15
  %9 = icmp slt i32 %8, 0
  br i1 %9, label %10, label %14

10:                                               ; preds = %7
  %11 = tail call i32 @get_log_level() #15
  %12 = icmp sgt i32 %11, 2
  br i1 %12, label %13, label %54

13:                                               ; preds = %10
  tail call void (i32, ptr, ...) @log_var(i32 noundef 3, ptr noundef nonnull @.str.74, ptr noundef nonnull %0) #15
  br label %54

14:                                               ; preds = %7
  %15 = tail call i32 @fork() #15
  %16 = icmp slt i32 %15, 0
  br i1 %16, label %17, label %19

17:                                               ; preds = %14
  %18 = tail call i32 (ptr, ...) @error(ptr noundef nonnull @.str.75) #15
  br label %54

19:                                               ; preds = %14
  %20 = icmp eq i32 %15, 0
  br i1 %20, label %21, label %.preheader

21:                                               ; preds = %19
  %22 = tail call ptr @slurm_xcalloc(i64 noundef 1, i64 noundef 8192, i1 noundef zeroext true, i1 noundef zeroext false, ptr noundef nonnull @.str, i32 noundef 1902, ptr noundef nonnull @__func__._run_srun_script) #15
  store ptr %0, ptr %22, align 8
  %23 = load i32, ptr getelementptr inbounds nuw (i8, ptr @opt, i64 64), align 8
  %24 = icmp sgt i32 %23, 0
  br i1 %24, label %.lr.ph, label %._crit_edge

.lr.ph:                                           ; preds = %21, %.lr.ph
  %indvars.iv = phi i64 [ %indvars.iv.next, %.lr.ph ], [ 0, %21 ]
  %25 = load ptr, ptr getelementptr inbounds nuw (i8, ptr @opt, i64 72), align 8
  %26 = getelementptr inbounds nuw ptr, ptr %25, i64 %indvars.iv
  %27 = load ptr, ptr %26, align 8
  %indvars.iv.next = add nuw nsw i64 %indvars.iv, 1
  %28 = getelementptr inbounds nuw ptr, ptr %22, i64 %indvars.iv.next
  store ptr %27, ptr %28, align 8
  %29 = load i32, ptr getelementptr inbounds nuw (i8, ptr @opt, i64 64), align 8
  %30 = sext i32 %29 to i64
  %31 = icmp slt i64 %indvars.iv.next, %30
  br i1 %31, label %.lr.ph, label %._crit_edge.loopexit, !llvm.loop !49

._crit_edge.loopexit:                             ; preds = %.lr.ph
  %32 = and i64 %indvars.iv.next, 4294967295
  br label %._crit_edge

._crit_edge:                                      ; preds = %._crit_edge.loopexit, %21
  %.0.lcssa = phi i64 [ 0, %21 ], [ %32, %._crit_edge.loopexit ]
  %33 = getelementptr inbounds nuw ptr, ptr %22, i64 %.0.lcssa
  %34 = getelementptr inbounds nuw i8, ptr %33, i64 8
  store ptr null, ptr %34, align 8
  %35 = tail call i32 @execv(ptr noundef nonnull %0, ptr noundef nonnull %22) #15
  %36 = tail call i32 (ptr, ...) @error(ptr noundef nonnull @.str.76) #15
  tail call void @_exit(i32 noundef 127) #17
  unreachable

.preheader:                                       ; preds = %19, %39
  %37 = call i32 @waitpid(i32 noundef %15, ptr noundef nonnull %2, i32 noundef 0) #15
  %38 = icmp slt i32 %37, 0
  br i1 %38, label %39, label %45

39:                                               ; preds = %.preheader
  %40 = tail call ptr @__errno_location() #16
  %41 = load i32, ptr %40, align 4
  %42 = icmp eq i32 %41, 4
  br i1 %42, label %.preheader, label %43, !llvm.loop !50

43:                                               ; preds = %39
  %44 = call i32 (ptr, ...) @error(ptr noundef nonnull @.str.77) #15
  br label %54

45:                                               ; preds = %.preheader
  %46 = load i32, ptr %2, align 4
  %47 = and i32 %46, 127
  %48 = icmp eq i32 %47, 0
  br i1 %48, label %49, label %52

49:                                               ; preds = %45
  %50 = lshr i32 %46, 8
  %51 = and i32 %50, 255
  br label %54

52:                                               ; preds = %45
  %53 = call i32 (ptr, ...) @error(ptr noundef nonnull @.str.78) #15
  br label %54

54:                                               ; preds = %10, %13, %1, %4, %52, %49, %43, %17
  %.017 = phi i32 [ 1, %17 ], [ 0, %43 ], [ %51, %49 ], [ 1, %52 ], [ 0, %4 ], [ 0, %1 ], [ 0, %13 ], [ 0, %10 ]
  call void @llvm.lifetime.end.p0(i64 4, ptr nonnull %2) #15
  ret i32 %.017
}